target datalayout = "e-m:e-p270:32:32-p271:32:32-p272:64:64-i64:64-i128:128-f80:128-n8:16:32:64-S128"
target triple = "x86_64-pc-linux-gnu"

%"class.bParse::bFile" = type <{ ptr, [7 x i8], i8, ptr, i32, i32, %class.b3HashMap, i32, [4 x i8], ptr, ptr, %class.b3AlignedObjectArray.4, %class.b3AlignedObjectArray.4, %class.b3AlignedObjectArray.6, %class.b3HashMap.8, %class.b3HashMap, i32, [4 x i8] }>
%class.b3AlignedObjectArray.4 = type <{ [4 x i8], i32, i32, [4 x i8], ptr, i8, [7 x i8] }>
%class.b3AlignedObjectArray.6 = type <{ [4 x i8], i32, i32, [4 x i8], ptr, i8, [7 x i8] }>
%class.b3HashMap.8 = type { %class.b3AlignedObjectArray, %class.b3AlignedObjectArray, %class.b3AlignedObjectArray.6, %class.b3AlignedObjectArray.2 }
%class.b3AlignedObjectArray = type <{ [4 x i8], i32, i32, [4 x i8], ptr, i8, [7 x i8] }>
%class.b3AlignedObjectArray.2 = type <{ [4 x i8], i32, i32, [4 x i8], ptr, i8, [7 x i8] }>
%class.b3HashMap = type { %class.b3AlignedObjectArray, %class.b3AlignedObjectArray, %class.b3AlignedObjectArray.0, %class.b3AlignedObjectArray.2 }
%class.b3AlignedObjectArray.0 = type <{ [4 x i8], i32, i32, [4 x i8], ptr, i8, [7 x i8] }>

; Function Attrs: inlinehint mustprogress nounwind willreturn memory(read) uwtable
define available_externally i32 @atoi(ptr noundef nonnull %0) #12 {
  %2 = alloca ptr, align 8
  store ptr %0, ptr %2, align 8, !tbaa !4
  %3 = load ptr, ptr %2, align 8, !tbaa !4
  %4 = call i64 @strtol(ptr noundef %3, ptr noundef null, i32 noundef 10) #16
  %5 = trunc i64 %4 to i32
  ret i32 %5
}

; Function Attrs: mustprogress nounwind uwtable
define dso_local void @_ZN6bParse5bFile11parseHeaderEv(ptr noundef nonnull align 8 dereferenceable(540) %0) unnamed_addr #7 align 2 {
  %2 = alloca ptr, align 8
  %3 = alloca ptr, align 8
  %4 = alloca [13 x i8], align 1
  %5 = alloca i32, align 4
  %6 = alloca ptr, align 8
  %7 = alloca i32, align 4
  store ptr %0, ptr %2, align 8, !tbaa !16
  %8 = load ptr, ptr %2, align 8
  %9 = getelementptr inbounds nuw %"class.bParse::bFile", ptr %8, i32 0, i32 4
  %10 = load i32, ptr %9, align 8, !tbaa !41
  %11 = icmp ne i32 %10, 0
  br i1 %11, label %12, label %16

12:                                               ; preds = %1
  %13 = getelementptr inbounds nuw %"class.bParse::bFile", ptr %8, i32 0, i32 3
  %14 = load ptr, ptr %13, align 8, !tbaa !40
  %15 = icmp ne ptr %14, null
  br i1 %15, label %17, label %16

16:                                               ; preds = %12, %1
  br label %94

17:                                               ; preds = %12
  call void @llvm.lifetime.start.p0(i64 8, ptr %3) #16
  %18 = getelementptr inbounds nuw %"class.bParse::bFile", ptr %8, i32 0, i32 3
  %19 = load ptr, ptr %18, align 8, !tbaa !40
  store ptr %19, ptr %3, align 8, !tbaa !4
  call void @llvm.lifetime.start.p0(i64 13, ptr %4) #16
  %20 = getelementptr inbounds [13 x i8], ptr %4, i64 0, i64 0
  %21 = load ptr, ptr %3, align 8, !tbaa !4
  call void @llvm.memcpy.p0.p0.i64(ptr align 1 %20, ptr align 1 %21, i64 12, i1 false)
  %22 = getelementptr inbounds [13 x i8], ptr %4, i64 0, i64 12
  store i8 0, ptr %22, align 1, !tbaa !11
  %23 = getelementptr inbounds [13 x i8], ptr %4, i64 0, i64 0
  %24 = getelementptr inbounds nuw %"class.bParse::bFile", ptr %8, i32 0, i32 1
  %25 = getelementptr inbounds [7 x i8], ptr %24, i64 0, i64 0
  %26 = call i32 @strncmp(ptr noundef %23, ptr noundef %25, i64 noundef 6) #17
  %27 = icmp ne i32 %26, 0
  br i1 %27, label %28, label %32

28:                                               ; preds = %17
  %29 = getelementptr inbounds [13 x i8], ptr %4, i64 0, i64 0
  %30 = getelementptr inbounds nuw %"class.bParse::bFile", ptr %8, i32 0, i32 1
  %31 = getelementptr inbounds [7 x i8], ptr %30, i64 0, i64 0
  call void @llvm.memcpy.p0.p0.i64(ptr align 1 %29, ptr align 8 %31, i64 12, i1 false)
  store i32 1, ptr %5, align 4
  br label %92

32:                                               ; preds = %17
  %33 = getelementptr inbounds [13 x i8], ptr %4, i64 0, i64 6
  %34 = load i8, ptr %33, align 1, !tbaa !11
  %35 = sext i8 %34 to i32
  %36 = icmp eq i32 %35, 100
  br i1 %36, label %37, label %41

37:                                               ; preds = %32
  %38 = getelementptr inbounds nuw %"class.bParse::bFile", ptr %8, i32 0, i32 16
  %39 = load i32, ptr %38, align 8, !tbaa !46
  %40 = or i32 %39, 64
  store i32 %40, ptr %38, align 8, !tbaa !46
  br label %41

41:                                               ; preds = %37, %32
  call void @llvm.lifetime.start.p0(i64 8, ptr %6) #16
  %42 = getelementptr inbounds [13 x i8], ptr %4, i64 0, i64 0
  %43 = getelementptr inbounds i8, ptr %42, i64 9
  store ptr %43, ptr %6, align 8, !tbaa !4
  %44 = load ptr, ptr %6, align 8, !tbaa !4
  %45 = call i32 @atoi(ptr noundef %44) #17
  %46 = getelementptr inbounds nuw %"class.bParse::bFile", ptr %8, i32 0, i32 5
  store i32 %45, ptr %46, align 4, !tbaa !42
  %47 = getelementptr inbounds nuw %"class.bParse::bFile", ptr %8, i32 0, i32 5
  %48 = load i32, ptr %47, align 4, !tbaa !42
  %49 = icmp sle i32 %48, 241
  br i1 %49, label %50, label %51

50:                                               ; preds = %41
  br label %51

51:                                               ; preds = %50, %41
  call void @llvm.lifetime.start.p0(i64 4, ptr %7) #16
  store i32 1, ptr %7, align 4, !tbaa !9
  %52 = getelementptr inbounds i8, ptr %7, i64 0
  %53 = load i8, ptr %52, align 4, !tbaa !11
  %54 = sext i8 %53 to i32
  store i32 %54, ptr %7, align 4, !tbaa !9
  %55 = getelementptr inbounds [13 x i8], ptr %4, i64 0, i64 7
  %56 = load i8, ptr %55, align 1, !tbaa !11
  %57 = sext i8 %56 to i32
  %58 = icmp eq i32 %57, 45
  br i1 %58, label %59, label %63

59:                                               ; preds = %51
  %60 = getelementptr inbounds nuw %"class.bParse::bFile", ptr %8, i32 0, i32 16
  %61 = load i32, ptr %60, align 8, !tbaa !46
  %62 = or i32 %61, 8
  store i32 %62, ptr %60, align 8, !tbaa !46
  br label %67

63:                                               ; preds = %51
  %64 = getelementptr inbounds nuw %"class.bParse::bFile", ptr %8, i32 0, i32 16
  %65 = load i32, ptr %64, align 8, !tbaa !46
  %66 = or i32 %65, 16
  store i32 %66, ptr %64, align 8, !tbaa !46
  br label %67

67:                                               ; preds = %63, %59
  %68 = getelementptr inbounds [13 x i8], ptr %4, i64 0, i64 8
  %69 = load i8, ptr %68, align 1, !tbaa !11
  %70 = sext i8 %69 to i32
  %71 = icmp eq i32 %70, 86
  br i1 %71, label %72, label %80

72:                                               ; preds = %67
  %73 = load i32, ptr %7, align 4, !tbaa !9
  %74 = icmp eq i32 %73, 1
  br i1 %74, label %75, label %79

75:                                               ; preds = %72
  %76 = getelementptr inbounds nuw %"class.bParse::bFile", ptr %8, i32 0, i32 16
  %77 = load i32, ptr %76, align 8, !tbaa !46
  %78 = or i32 %77, 4
  store i32 %78, ptr %76, align 8, !tbaa !46
  br label %79

79:                                               ; preds = %75, %72
  br label %88

80:                                               ; preds = %67
  %81 = load i32, ptr %7, align 4, !tbaa !9
  %82 = icmp eq i32 %81, 0
  br i1 %82, label %83, label %87

83:                                               ; preds = %80
  %84 = getelementptr inbounds nuw %"class.bParse::bFile", ptr %8, i32 0, i32 16
  %85 = load i32, ptr %84, align 8, !tbaa !46
  %86 = or i32 %85, 4
  store i32 %86, ptr %84, align 8, !tbaa !46
  br label %87

87:                                               ; preds = %83, %80
  br label %88

88:                                               ; preds = %87, %79
  %89 = getelementptr inbounds nuw %"class.bParse::bFile", ptr %8, i32 0, i32 16
  %90 = load i32, ptr %89, align 8, !tbaa !46
  %91 = or i32 %90, 1
  store i32 %91, ptr %89, align 8, !tbaa !46
  call void @llvm.lifetime.end.p0(i64 4, ptr %7) #16
  call void @llvm.lifetime.end.p0(i64 8, ptr %6) #16
  store i32 0, ptr %5, align 4
  br label %92

92:                                               ; preds = %88, %28
  call void @llvm.lifetime.end.p0(i64 13, ptr %4) #16
  call void @llvm.lifetime.end.p0(i64 8, ptr %3) #16
  %93 = load i32, ptr %5, align 4
  switch i32 %93, label %95 [
    i32 0, label %94
    i32 1, label %94
  ]

94:                                               ; preds = %16, %92, %92
  ret void

95:                                               ; preds = %92
  unreachable
}