; Function Attrs: mustprogress nofree nounwind willreturn uwtable
define dso_local void @_ZN6bParse5bFile11parseHeaderEv(ptr noundef nonnull align 8 captures(none) dereferenceable(540) %0) unnamed_addr #14 align 2 {
  %2 = alloca [13 x i8], align 1
  %3 = getelementptr inbounds nuw i8, ptr %0, i64 24
  %4 = load i32, ptr %3, align 8, !tbaa !58
  %.not = icmp eq i32 %4, 0
  br i1 %.not, label %39, label %5

5:                                                ; preds = %1
  %6 = getelementptr inbounds nuw i8, ptr %0, i64 16
  %7 = load ptr, ptr %6, align 8, !tbaa !59
  %.not14 = icmp eq ptr %7, null
  br i1 %.not14, label %39, label %8

8:                                                ; preds = %5
  call void @llvm.lifetime.start.p0(i64 13, ptr nonnull %2) #31
  call void @llvm.memcpy.p0.p0.i64(ptr noundef nonnull align 1 dereferenceable(12) %2, ptr noundef nonnull align 1 dereferenceable(12) %7, i64 12, i1 false)
  %9 = getelementptr inbounds nuw i8, ptr %2, i64 12
  store i8 0, ptr %9, align 1, !tbaa !4
  %10 = getelementptr inbounds nuw i8, ptr %0, i64 8
  %11 = call i32 @strncmp(ptr noundef nonnull dereferenceable(1) %2, ptr noundef nonnull dereferenceable(1) %10, i64 noundef 6) #29
  %.not15 = icmp eq i32 %11, 0
  br i1 %.not15, label %12, label %38

12:                                               ; preds = %8
  %13 = getelementptr inbounds nuw i8, ptr %2, i64 6
  %14 = load i8, ptr %13, align 1, !tbaa !4
  %15 = icmp eq i8 %14, 100
  br i1 %15, label %16, label %20

16:                                               ; preds = %12
  %17 = getelementptr inbounds nuw i8, ptr %0, i64 536
  %18 = load i32, ptr %17, align 8, !tbaa !56
  %19 = or i32 %18, 64
  store i32 %19, ptr %17, align 8, !tbaa !56
  br label %20

20:                                               ; preds = %16, %12
  %21 = getelementptr inbounds nuw i8, ptr %2, i64 9
  %22 = call i64 @strtol(ptr noundef nonnull captures(none) %21, ptr noundef null, i32 noundef 10) #31
  %23 = trunc i64 %22 to i32
  %24 = getelementptr inbounds nuw i8, ptr %0, i64 28
  store i32 %23, ptr %24, align 4, !tbaa !62
  %25 = getelementptr inbounds nuw i8, ptr %2, i64 7
  %26 = load i8, ptr %25, align 1, !tbaa !4
  %27 = icmp eq i8 %26, 45
  %28 = getelementptr inbounds nuw i8, ptr %0, i64 536
  %29 = load i32, ptr %28, align 8, !tbaa !56
  %. = select i1 %27, i32 8, i32 16
  %30 = or i32 %29, %.
  %31 = getelementptr inbounds nuw i8, ptr %2, i64 8
  %32 = load i8, ptr %31, align 1, !tbaa !4
  %33 = icmp eq i8 %32, 86
  %34 = or i32 %30, 4
  %35 = select i1 %33, i32 %34, i32 %30
  %36 = getelementptr inbounds nuw i8, ptr %0, i64 536
  %37 = or i32 %35, 1
  store i32 %37, ptr %36, align 8, !tbaa !56
  br label %38

38:                                               ; preds = %8, %20
  call void @llvm.lifetime.end.p0(i64 13, ptr nonnull %2) #31
  br label %39

39:                                               ; preds = %1, %5, %38
  ret void
}